; Function Attrs: mustprogress nounwind uwtable
define dso_local noundef nonnull align 8 dereferenceable(24) ptr @_ZN5clang10extractapi20DeclarationFragments23removeTrailingSemicolonEv(ptr noundef nonnull readonly returned align 8 dereferenceable(24) %0) local_unnamed_addr #0 align 2 {
  %2 = load ptr, ptr %0, align 8
  %3 = getelementptr inbounds nuw i8, ptr %0, i64 8
  %4 = load ptr, ptr %3, align 8
  %5 = icmp eq ptr %2, %4
  br i1 %5, label %16, label %6

6:                                                ; preds = %1
  %7 = getelementptr inbounds i8, ptr %4, i64 -80
  %8 = getelementptr inbounds i8, ptr %4, i64 -48
  %9 = load i32, ptr %8, align 8
  %10 = icmp eq i32 %9, 10
  br i1 %10, label %11, label %16

11:                                               ; preds = %6
  %12 = tail call noundef nonnull align 1 dereferenceable(1) ptr @_ZNSt7__cxx1112basic_stringIcSt11char_traitsIcESaIcEE4backEv(ptr noundef nonnull align 8 dereferenceable(32) %7) #19
  %13 = load i8, ptr %12, align 1
  %14 = icmp eq i8 %13, 59
  br i1 %14, label %15, label %16

15:                                               ; preds = %11
  tail call void @_ZNSt7__cxx1112basic_stringIcSt11char_traitsIcESaIcEE8pop_backEv(ptr noundef nonnull align 8 dereferenceable(32) %7) #19
  br label %16

16:                                               ; preds = %6, %11, %15, %1
  ret ptr %0
}